; Function Attrs: mustprogress uwtable
define hidden noundef nonnull align 8 dereferenceable(8) ptr @_ZNK3sat4prob7displayERSo(ptr nocapture noundef nonnull readonly align 8 dereferenceable(816) %this, ptr noundef nonnull returned align 8 dereferenceable(8) %out) local_unnamed_addr #6 align 2 {
entry:
  %m_clauses = getelementptr inbounds i8, ptr %this, i64 648
  %0 = load ptr, ptr %m_clauses, align 8
  %cmp.i = icmp eq ptr %0, null
  br i1 %cmp.i, label %for.end, label %_ZNK6vectorIN3sat4prob11clause_infoELb0EjE4sizeEv.exit

_ZNK6vectorIN3sat4prob11clause_infoELb0EjE4sizeEv.exit: ; preds = %entry
  %arrayidx.i = getelementptr inbounds i8, ptr %0, i64 -4
  %1 = load i32, ptr %arrayidx.i, align 4
  %cmp7.not = icmp eq i32 %1, 0
  br i1 %cmp7.not, label %for.end, label %for.body.lr.ph

for.body.lr.ph:                                   ; preds = %_ZNK6vectorIN3sat4prob11clause_infoELb0EjE4sizeEv.exit
  %m_clause_db.i = getelementptr inbounds i8, ptr %this, i64 640
  %wide.trip.count = zext i32 %1 to i64
  br label %for.body

for.body:                                         ; preds = %for.body.lr.ph, %for.body
  %indvars.iv = phi i64 [ 0, %for.body.lr.ph ], [ %indvars.iv.next, %for.body ]
  %2 = load ptr, ptr %m_clause_db.i, align 8
  %arrayidx.i.i = getelementptr inbounds ptr, ptr %2, i64 %indvars.iv
  %3 = load ptr, ptr %arrayidx.i.i, align 8
  %call3 = tail call noundef nonnull align 8 dereferenceable(8) ptr @_ZN3satlsERSoRKNS_6clauseE(ptr noundef nonnull align 8 dereferenceable(8) %out, ptr noundef nonnull align 4 dereferenceable(20) %3)
  %call4 = tail call noundef nonnull align 8 dereferenceable(8) ptr @_ZStlsISt11char_traitsIcEERSt13basic_ostreamIcT_ES5_PKc(ptr noundef nonnull align 8 dereferenceable(8) %call3, ptr noundef nonnull @.str.8)
  %4 = load ptr, ptr %m_clauses, align 8
  %m_num_trues = getelementptr inbounds %"struct.sat::prob::clause_info", ptr %4, i64 %indvars.iv, i32 1
  %5 = load i32, ptr %m_num_trues, align 4
  %call7 = tail call noundef nonnull align 8 dereferenceable(8) ptr @_ZNSolsEj(ptr noundef nonnull align 8 dereferenceable(8) %out, i32 noundef %5)
  %call8 = tail call noundef nonnull align 8 dereferenceable(8) ptr @_ZStlsISt11char_traitsIcEERSt13basic_ostreamIcT_ES5_PKc(ptr noundef nonnull align 8 dereferenceable(8) %call7, ptr noundef nonnull @.str.9)
  %indvars.iv.next = add nuw nsw i64 %indvars.iv, 1
  %exitcond.not = icmp eq i64 %indvars.iv.next, %wide.trip.count
  br i1 %exitcond.not, label %for.end, label %for.body, !llvm.loop !24

for.end:                                          ; preds = %for.body, %entry, %_ZNK6vectorIN3sat4prob11clause_infoELb0EjE4sizeEv.exit
  ret ptr %out
}